; Function Attrs: nounwind uwtable
define dso_local zeroext i1 @have_createdb_privilege() local_unnamed_addr #0 {
  %1 = tail call zeroext i1 @superuser() #16
  br i1 %1, label %15, label %2

2:                                                ; preds = %0
  %3 = tail call i32 @GetUserId() #16
  %4 = zext i32 %3 to i64
  %5 = tail call ptr @SearchSysCache1(i32 noundef 11, i64 noundef %4) #16
  %.not = icmp eq ptr %5, null
  br i1 %.not, label %15, label %6

6:                                                ; preds = %2
  %7 = getelementptr i8, ptr %5, i64 16
  %.val = load ptr, ptr %7, align 8
  %8 = getelementptr inbounds nuw i8, ptr %.val, i64 22
  %9 = load i8, ptr %8, align 2
  %10 = zext i8 %9 to i64
  %11 = getelementptr inbounds nuw i8, ptr %.val, i64 %10
  %12 = getelementptr inbounds nuw i8, ptr %11, i64 71
  %13 = load i8, ptr %12, align 1, !range !4, !noundef !5
  tail call void @ReleaseSysCache(ptr noundef nonnull %5) #16
  %14 = trunc nuw i8 %13 to i1
  br label %15

15:                                               ; preds = %2, %6, %0
  %.0 = phi i1 [ true, %0 ], [ %14, %6 ], [ false, %2 ]
  ret i1 %.0
}